target datalayout = "e-m:e-p270:32:32-p271:32:32-p272:64:64-i64:64-i128:128-f80:128-n8:16:32:64-S128"
target triple = "x86_64-pc-linux-gnu"

%class.G1MMUTracker = type <{ double, double, [64 x %class.G1MMUTrackerElem], i32, i32, i32, [4 x i8] }>
%class.G1MMUTrackerElem = type { double, double }

; Function Attrs: mustprogress nounwind uwtable
define linkonce_odr hidden noundef double @_Z4MAX2IdET_S0_S0_(double noundef %0, double noundef %1) #1 comdat {
  %3 = alloca double, align 8
  %4 = alloca double, align 8
  store double %0, ptr %3, align 8
  store double %1, ptr %4, align 8
  %5 = load double, ptr %3, align 8
  %6 = load double, ptr %4, align 8
  %7 = fcmp ogt double %5, %6
  br i1 %7, label %8, label %10

8:                                                ; preds = %2
  %9 = load double, ptr %3, align 8
  br label %12

10:                                               ; preds = %2
  %11 = load double, ptr %4, align 8
  br label %12

12:                                               ; preds = %10, %8
  %13 = phi double [ %9, %8 ], [ %11, %10 ]
  ret double %13
}

; Function Attrs: mustprogress nounwind uwtable
define linkonce_odr hidden noundef double @_ZNK16G1MMUTrackerElem10start_timeEv(ptr noundef nonnull align 8 dereferenceable(16) %0) #1 comdat align 2 {
  %2 = alloca ptr, align 8
  store ptr %0, ptr %2, align 8
  %3 = load ptr, ptr %2, align 8
  %4 = getelementptr inbounds %class.G1MMUTrackerElem, ptr %3, i32 0, i32 0
  %5 = load double, ptr %4, align 8
  ret double %5
}

; Function Attrs: mustprogress nounwind uwtable
define linkonce_odr hidden noundef double @_ZNK16G1MMUTrackerElem8end_timeEv(ptr noundef nonnull align 8 dereferenceable(16) %0) #1 comdat align 2 {
  %2 = alloca ptr, align 8
  store ptr %0, ptr %2, align 8
  %3 = load ptr, ptr %2, align 8
  %4 = getelementptr inbounds %class.G1MMUTrackerElem, ptr %3, i32 0, i32 1
  %5 = load double, ptr %4, align 8
  ret double %5
}

; Function Attrs: mustprogress nounwind uwtable
define linkonce_odr hidden noundef i32 @_ZNK12G1MMUTracker10trim_indexEi(ptr noundef nonnull align 8 dereferenceable(1052) %0, i32 noundef %1) #1 comdat align 2 {
  %3 = alloca ptr, align 8
  %4 = alloca i32, align 4
  store ptr %0, ptr %3, align 8
  store i32 %1, ptr %4, align 4
  %5 = load i32, ptr %4, align 4
  %6 = add nsw i32 %5, 64
  %7 = srem i32 %6, 64
  ret i32 %7
}

; Function Attrs: mustprogress nounwind uwtable
define linkonce_odr hidden noundef double @_Z4MIN2IdET_S0_S0_(double noundef %0, double noundef %1) #1 comdat {
  %3 = alloca double, align 8
  %4 = alloca double, align 8
  store double %0, ptr %3, align 8
  store double %1, ptr %4, align 8
  %5 = load double, ptr %3, align 8
  %6 = load double, ptr %4, align 8
  %7 = fcmp olt double %5, %6
  br i1 %7, label %8, label %10

8:                                                ; preds = %2
  %9 = load double, ptr %3, align 8
  br label %12

10:                                               ; preds = %2
  %11 = load double, ptr %4, align 8
  br label %12

12:                                               ; preds = %10, %8
  %13 = phi double [ %9, %8 ], [ %11, %10 ]
  ret double %13
}

; Function Attrs: mustprogress nounwind uwtable
define linkonce_odr hidden noundef double @_ZNK12G1MMUTracker11max_gc_timeEv(ptr noundef nonnull align 8 dereferenceable(1052) %0) #1 comdat align 2 {
  %2 = alloca ptr, align 8
  store ptr %0, ptr %2, align 8
  %3 = load ptr, ptr %2, align 8
  %4 = getelementptr inbounds %class.G1MMUTracker, ptr %3, i32 0, i32 1
  %5 = load double, ptr %4, align 8
  ret double %5
}

; Function Attrs: mustprogress nounwind uwtable
define hidden noundef double @_ZNK12G1MMUTracker8when_secEdd(ptr noundef nonnull align 8 dereferenceable(1052) %0, double noundef %1, double noundef %2) #1 align 2 {
  %4 = alloca double, align 8
  %5 = alloca ptr, align 8
  %6 = alloca double, align 8
  %7 = alloca double, align 8
  %8 = alloca double, align 8
  %9 = alloca double, align 8
  %10 = alloca i32, align 4
  %11 = alloca i32, align 4
  %12 = alloca ptr, align 8
  %13 = alloca double, align 8
  %14 = alloca double, align 8
  store ptr %0, ptr %5, align 8
  store double %1, ptr %6, align 8
  store double %2, ptr %7, align 8
  %15 = load ptr, ptr %5, align 8
  %16 = load double, ptr %7, align 8
  %17 = call noundef double @_ZNK12G1MMUTracker11max_gc_timeEv(ptr noundef nonnull align 8 dereferenceable(1052) %15)
  %18 = call noundef double @_Z4MIN2IdET_S0_S0_(double noundef %16, double noundef %17)
  store double %18, ptr %7, align 8
  %19 = call noundef double @_ZNK12G1MMUTracker11max_gc_timeEv(ptr noundef nonnull align 8 dereferenceable(1052) %15)
  %20 = load double, ptr %7, align 8
  %21 = fsub double %19, %20
  store double %21, ptr %8, align 8
  %22 = load double, ptr %6, align 8
  %23 = load double, ptr %7, align 8
  %24 = fadd double %22, %23
  %25 = getelementptr inbounds %class.G1MMUTracker, ptr %15, i32 0, i32 0
  %26 = load double, ptr %25, align 8
  %27 = fsub double %24, %26
  store double %27, ptr %9, align 8
  store i32 0, ptr %10, align 4
  br label %28

28:                                               ; preds = %71, %3
  %29 = load i32, ptr %10, align 4
  %30 = getelementptr inbounds %class.G1MMUTracker, ptr %15, i32 0, i32 5
  %31 = load i32, ptr %30, align 8
  %32 = icmp slt i32 %29, %31
  br i1 %32, label %33, label %74

33:                                               ; preds = %28
  %34 = getelementptr inbounds %class.G1MMUTracker, ptr %15, i32 0, i32 3
  %35 = load i32, ptr %34, align 8
  %36 = load i32, ptr %10, align 4
  %37 = sub nsw i32 %35, %36
  %38 = call noundef i32 @_ZNK12G1MMUTracker10trim_indexEi(ptr noundef nonnull align 8 dereferenceable(1052) %15, i32 noundef %37)
  store i32 %38, ptr %11, align 4
  %39 = getelementptr inbounds %class.G1MMUTracker, ptr %15, i32 0, i32 2
  %40 = load i32, ptr %11, align 4
  %41 = sext i32 %40 to i64
  %42 = getelementptr inbounds [64 x %class.G1MMUTrackerElem], ptr %39, i64 0, i64 %41
  store ptr %42, ptr %12, align 8
  %43 = load ptr, ptr %12, align 8
  %44 = call noundef double @_ZNK16G1MMUTrackerElem8end_timeEv(ptr noundef nonnull align 8 dereferenceable(16) %43)
  %45 = load double, ptr %9, align 8
  %46 = fcmp ole double %44, %45
  br i1 %46, label %47, label %48

47:                                               ; preds = %33
  br label %74

48:                                               ; preds = %33
  %49 = load ptr, ptr %12, align 8
  %50 = call noundef double @_ZNK16G1MMUTrackerElem8end_timeEv(ptr noundef nonnull align 8 dereferenceable(16) %49)
  %51 = load ptr, ptr %12, align 8
  %52 = call noundef double @_ZNK16G1MMUTrackerElem10start_timeEv(ptr noundef nonnull align 8 dereferenceable(16) %51)
  %53 = load double, ptr %9, align 8
  %54 = call noundef double @_Z4MAX2IdET_S0_S0_(double noundef %52, double noundef %53)
  %55 = fsub double %50, %54
  store double %55, ptr %13, align 8
  %56 = load double, ptr %13, align 8
  %57 = load double, ptr %8, align 8
  %58 = fcmp ogt double %56, %57
  br i1 %58, label %59, label %67

59:                                               ; preds = %48
  %60 = load ptr, ptr %12, align 8
  %61 = call noundef double @_ZNK16G1MMUTrackerElem8end_timeEv(ptr noundef nonnull align 8 dereferenceable(16) %60)
  %62 = load double, ptr %8, align 8
  %63 = fsub double %61, %62
  store double %63, ptr %14, align 8
  %64 = load double, ptr %14, align 8
  %65 = load double, ptr %9, align 8
  %66 = fsub double %64, %65
  store double %66, ptr %4, align 8
  br label %75

67:                                               ; preds = %48
  %68 = load double, ptr %13, align 8
  %69 = load double, ptr %8, align 8
  %70 = fsub double %69, %68
  store double %70, ptr %8, align 8
  br label %71

71:                                               ; preds = %67
  %72 = load i32, ptr %10, align 4
  %73 = add nsw i32 %72, 1
  store i32 %73, ptr %10, align 4
  br label %28, !llvm.loop !9

74:                                               ; preds = %47, %28
  store double 0.000000e+00, ptr %4, align 8
  br label %75

75:                                               ; preds = %74, %59
  %76 = load double, ptr %4, align 8
  ret double %76
}