; Function Attrs: mustprogress nofree norecurse nosync nounwind willreturn memory(argmem: read) uwtable
define hidden noundef double @_ZNK12G1MMUTracker8when_secEdd(ptr nocapture noundef nonnull readonly align 8 dereferenceable(1052) %0, double noundef %1, double noundef %2) local_unnamed_addr #3 align 2 {
  %4 = getelementptr inbounds i8, ptr %0, i64 8
  %5 = load double, ptr %4, align 8
  %6 = fcmp ogt double %5, %2
  %7 = select i1 %6, double %2, double %5
  %8 = fadd double %7, %1
  %9 = load double, ptr %0, align 8
  %10 = fsub double %8, %9
  %11 = getelementptr inbounds i8, ptr %0, i64 1048
  %12 = load i32, ptr %11, align 8
  %13 = icmp sgt i32 %12, 0
  br i1 %13, label %.lr.ph, label %.loopexit

.lr.ph:                                           ; preds = %3
  %14 = fsub double %5, %7
  %15 = getelementptr inbounds i8, ptr %0, i64 1040
  %16 = load i32, ptr %15, align 8
  %17 = getelementptr inbounds i8, ptr %0, i64 16
  br label %18

18:                                               ; preds = %.lr.ph, %35
  %.02228 = phi double [ %14, %.lr.ph ], [ %36, %35 ]
  %.02327 = phi i32 [ 0, %.lr.ph ], [ %37, %35 ]
  %reass.sub = sub i32 %16, %.02327
  %19 = add i32 %reass.sub, 64
  %20 = srem i32 %19, 64
  %21 = sext i32 %20 to i64
  %22 = getelementptr inbounds [64 x %class.G1MMUTrackerElem], ptr %17, i64 0, i64 %21
  %23 = getelementptr inbounds i8, ptr %22, i64 8
  %24 = load double, ptr %23, align 8
  %25 = fcmp ugt double %24, %10
  br i1 %25, label %26, label %.loopexit

26:                                               ; preds = %18
  %27 = load double, ptr %22, align 8
  %28 = fcmp ogt double %27, %10
  %29 = select i1 %28, double %27, double %10
  %30 = fsub double %24, %29
  %31 = fcmp ogt double %30, %.02228
  br i1 %31, label %32, label %35

32:                                               ; preds = %26
  %33 = fsub double %24, %.02228
  %34 = fsub double %33, %10
  br label %.loopexit

35:                                               ; preds = %26
  %36 = fsub double %.02228, %30
  %37 = add nuw nsw i32 %.02327, 1
  %exitcond.not = icmp eq i32 %37, %12
  br i1 %exitcond.not, label %.loopexit, label %18, !llvm.loop !9

.loopexit:                                        ; preds = %18, %35, %3, %32
  %.0 = phi double [ %34, %32 ], [ 0.000000e+00, %3 ], [ 0.000000e+00, %35 ], [ 0.000000e+00, %18 ]
  ret double %.0
}